target datalayout = "e-m:e-p270:32:32-p271:32:32-p272:64:64-i64:64-i128:128-f80:128-n8:16:32:64-S128"
target triple = "x86_64-pc-linux-gnu"

%struct.AVFormatContext = type { ptr, ptr, ptr, ptr, ptr, i32, i32, ptr, i32, ptr, i32, ptr, ptr, i64, i64, i64, i32, i32, i32, i64, i64, ptr, i32, i32, ptr, i32, i32, i32, i32, ptr, i64, i32, i32, %struct.AVIOInterruptCB, i32, i32, i32, i32, i64, i32, i32, i32, i32, i32, i32, i32, i32, i32, i32, i32, i32, i64, i32, i32, i32, i32, i32, ptr, ptr, ptr, ptr, i32, ptr, ptr, ptr, ptr, i32, ptr, ptr, i64, ptr, ptr, ptr, i64 }
%struct.AVIOInterruptCB = type { ptr, ptr }
%struct.AVStream = type { ptr, i32, i32, ptr, ptr, %struct.AVRational, i64, i64, i64, i32, i32, %struct.AVRational, ptr, %struct.AVRational, %struct.AVPacket, i32, %struct.AVRational, i32 }
%struct.AVPacket = type { ptr, i64, i64, ptr, i32, i32, i32, ptr, i32, i64, i64, ptr, ptr, %struct.AVRational }
%struct.AVRational = type { i32, i32 }
%struct.AVChapter = type { i64, %struct.AVRational, i64, i64, ptr }
%struct.AVProgram = type { i32, i32, i32, ptr, i32, ptr, i32, i32, i32, i32, i64, i64, i64, i32 }

; Function Attrs: nounwind uwtable
define void @ff_metadata_conv_ctx(ptr noundef %0, ptr noundef %1, ptr noundef %2) #0 {
  %4 = alloca ptr, align 8
  %5 = alloca ptr, align 8
  %6 = alloca ptr, align 8
  %7 = alloca i32, align 4
  store ptr %0, ptr %4, align 8, !tbaa !28
  store ptr %1, ptr %5, align 8, !tbaa !10
  store ptr %2, ptr %6, align 8, !tbaa !10
  call void @llvm.lifetime.start.p0(i64 4, ptr %7) #3
  %8 = load ptr, ptr %4, align 8, !tbaa !28
  %9 = getelementptr inbounds nuw %struct.AVFormatContext, ptr %8, i32 0, i32 29
  %10 = load ptr, ptr %5, align 8, !tbaa !10
  %11 = load ptr, ptr %6, align 8, !tbaa !10
  call void @ff_metadata_conv(ptr noundef %9, ptr noundef %10, ptr noundef %11)
  store i32 0, ptr %7, align 4, !tbaa !30
  br label %12

12:                                               ; preds = %29, %3
  %13 = load i32, ptr %7, align 4, !tbaa !30
  %14 = load ptr, ptr %4, align 8, !tbaa !28
  %15 = getelementptr inbounds nuw %struct.AVFormatContext, ptr %14, i32 0, i32 6
  %16 = load i32, ptr %15, align 4, !tbaa !32
  %17 = icmp ult i32 %13, %16
  br i1 %17, label %18, label %32

18:                                               ; preds = %12
  %19 = load ptr, ptr %4, align 8, !tbaa !28
  %20 = getelementptr inbounds nuw %struct.AVFormatContext, ptr %19, i32 0, i32 7
  %21 = load ptr, ptr %20, align 8, !tbaa !45
  %22 = load i32, ptr %7, align 4, !tbaa !30
  %23 = sext i32 %22 to i64
  %24 = getelementptr inbounds ptr, ptr %21, i64 %23
  %25 = load ptr, ptr %24, align 8, !tbaa !46
  %26 = getelementptr inbounds nuw %struct.AVStream, ptr %25, i32 0, i32 12
  %27 = load ptr, ptr %5, align 8, !tbaa !10
  %28 = load ptr, ptr %6, align 8, !tbaa !10
  call void @ff_metadata_conv(ptr noundef %26, ptr noundef %27, ptr noundef %28)
  br label %29

29:                                               ; preds = %18
  %30 = load i32, ptr %7, align 4, !tbaa !30
  %31 = add nsw i32 %30, 1
  store i32 %31, ptr %7, align 4, !tbaa !30
  br label %12, !llvm.loop !48

32:                                               ; preds = %12
  store i32 0, ptr %7, align 4, !tbaa !30
  br label %33

33:                                               ; preds = %50, %32
  %34 = load i32, ptr %7, align 4, !tbaa !30
  %35 = load ptr, ptr %4, align 8, !tbaa !28
  %36 = getelementptr inbounds nuw %struct.AVFormatContext, ptr %35, i32 0, i32 10
  %37 = load i32, ptr %36, align 8, !tbaa !49
  %38 = icmp ult i32 %34, %37
  br i1 %38, label %39, label %53

39:                                               ; preds = %33
  %40 = load ptr, ptr %4, align 8, !tbaa !28
  %41 = getelementptr inbounds nuw %struct.AVFormatContext, ptr %40, i32 0, i32 11
  %42 = load ptr, ptr %41, align 8, !tbaa !50
  %43 = load i32, ptr %7, align 4, !tbaa !30
  %44 = sext i32 %43 to i64
  %45 = getelementptr inbounds ptr, ptr %42, i64 %44
  %46 = load ptr, ptr %45, align 8, !tbaa !51
  %47 = getelementptr inbounds nuw %struct.AVChapter, ptr %46, i32 0, i32 4
  %48 = load ptr, ptr %5, align 8, !tbaa !10
  %49 = load ptr, ptr %6, align 8, !tbaa !10
  call void @ff_metadata_conv(ptr noundef %47, ptr noundef %48, ptr noundef %49)
  br label %50

50:                                               ; preds = %39
  %51 = load i32, ptr %7, align 4, !tbaa !30
  %52 = add nsw i32 %51, 1
  store i32 %52, ptr %7, align 4, !tbaa !30
  br label %33, !llvm.loop !53

53:                                               ; preds = %33
  store i32 0, ptr %7, align 4, !tbaa !30
  br label %54

54:                                               ; preds = %71, %53
  %55 = load i32, ptr %7, align 4, !tbaa !30
  %56 = load ptr, ptr %4, align 8, !tbaa !28
  %57 = getelementptr inbounds nuw %struct.AVFormatContext, ptr %56, i32 0, i32 23
  %58 = load i32, ptr %57, align 4, !tbaa !54
  %59 = icmp ult i32 %55, %58
  br i1 %59, label %60, label %74

60:                                               ; preds = %54
  %61 = load ptr, ptr %4, align 8, !tbaa !28
  %62 = getelementptr inbounds nuw %struct.AVFormatContext, ptr %61, i32 0, i32 24
  %63 = load ptr, ptr %62, align 8, !tbaa !55
  %64 = load i32, ptr %7, align 4, !tbaa !30
  %65 = sext i32 %64 to i64
  %66 = getelementptr inbounds ptr, ptr %63, i64 %65
  %67 = load ptr, ptr %66, align 8, !tbaa !56
  %68 = getelementptr inbounds nuw %struct.AVProgram, ptr %67, i32 0, i32 5
  %69 = load ptr, ptr %5, align 8, !tbaa !10
  %70 = load ptr, ptr %6, align 8, !tbaa !10
  call void @ff_metadata_conv(ptr noundef %68, ptr noundef %69, ptr noundef %70)
  br label %71

71:                                               ; preds = %60
  %72 = load i32, ptr %7, align 4, !tbaa !30
  %73 = add nsw i32 %72, 1
  store i32 %73, ptr %7, align 4, !tbaa !30
  br label %54, !llvm.loop !58

74:                                               ; preds = %54
  call void @llvm.lifetime.end.p0(i64 4, ptr %7) #3
  ret void
}