; Function Attrs: nounwind uwtable
define void @ff_metadata_conv_ctx(ptr noundef %0, ptr noundef readonly captures(address) %1, ptr noundef readonly captures(address) %2) local_unnamed_addr #0 {
  %4 = getelementptr inbounds nuw i8, ptr %0, i64 192
  tail call void @ff_metadata_conv(ptr noundef nonnull %4, ptr noundef %1, ptr noundef %2)
  %5 = getelementptr inbounds nuw i8, ptr %0, i64 44
  %6 = load i32, ptr %5, align 4, !tbaa !20
  %.not = icmp eq i32 %6, 0
  br i1 %.not, label %.preheader23, label %.lr.ph

.lr.ph:                                           ; preds = %3
  %7 = getelementptr inbounds nuw i8, ptr %0, i64 48
  br label %11

.preheader23:                                     ; preds = %11, %3
  %8 = getelementptr inbounds nuw i8, ptr %0, i64 72
  %9 = load i32, ptr %8, align 8, !tbaa !35
  %.not29 = icmp eq i32 %9, 0
  br i1 %.not29, label %.preheader, label %.lr.ph26

.lr.ph26:                                         ; preds = %.preheader23
  %10 = getelementptr inbounds nuw i8, ptr %0, i64 80
  br label %22

11:                                               ; preds = %.lr.ph, %11
  %indvars.iv = phi i64 [ 0, %.lr.ph ], [ %indvars.iv.next, %11 ]
  %12 = load ptr, ptr %7, align 8, !tbaa !36
  %13 = getelementptr inbounds nuw ptr, ptr %12, i64 %indvars.iv
  %14 = load ptr, ptr %13, align 8, !tbaa !37
  %15 = getelementptr inbounds nuw i8, ptr %14, i64 80
  tail call void @ff_metadata_conv(ptr noundef nonnull %15, ptr noundef %1, ptr noundef %2)
  %indvars.iv.next = add nuw nsw i64 %indvars.iv, 1
  %16 = load i32, ptr %5, align 4, !tbaa !20
  %17 = zext i32 %16 to i64
  %18 = icmp samesign ult i64 %indvars.iv.next, %17
  br i1 %18, label %11, label %.preheader23, !llvm.loop !39

.preheader:                                       ; preds = %22, %.preheader23
  %19 = getelementptr inbounds nuw i8, ptr %0, i64 164
  %20 = load i32, ptr %19, align 4, !tbaa !40
  %.not30 = icmp eq i32 %20, 0
  br i1 %.not30, label %._crit_edge, label %.lr.ph28

.lr.ph28:                                         ; preds = %.preheader
  %21 = getelementptr inbounds nuw i8, ptr %0, i64 168
  br label %30

22:                                               ; preds = %.lr.ph26, %22
  %indvars.iv32 = phi i64 [ 0, %.lr.ph26 ], [ %indvars.iv.next33, %22 ]
  %23 = load ptr, ptr %10, align 8, !tbaa !41
  %24 = getelementptr inbounds nuw ptr, ptr %23, i64 %indvars.iv32
  %25 = load ptr, ptr %24, align 8, !tbaa !42
  %26 = getelementptr inbounds nuw i8, ptr %25, i64 32
  tail call void @ff_metadata_conv(ptr noundef nonnull %26, ptr noundef %1, ptr noundef %2)
  %indvars.iv.next33 = add nuw nsw i64 %indvars.iv32, 1
  %27 = load i32, ptr %8, align 8, !tbaa !35
  %28 = zext i32 %27 to i64
  %29 = icmp samesign ult i64 %indvars.iv.next33, %28
  br i1 %29, label %22, label %.preheader, !llvm.loop !44

30:                                               ; preds = %.lr.ph28, %30
  %indvars.iv35 = phi i64 [ 0, %.lr.ph28 ], [ %indvars.iv.next36, %30 ]
  %31 = load ptr, ptr %21, align 8, !tbaa !45
  %32 = getelementptr inbounds nuw ptr, ptr %31, i64 %indvars.iv35
  %33 = load ptr, ptr %32, align 8, !tbaa !46
  %34 = getelementptr inbounds nuw i8, ptr %33, i64 32
  tail call void @ff_metadata_conv(ptr noundef nonnull %34, ptr noundef %1, ptr noundef %2)
  %indvars.iv.next36 = add nuw nsw i64 %indvars.iv35, 1
  %35 = load i32, ptr %19, align 4, !tbaa !40
  %36 = zext i32 %35 to i64
  %37 = icmp samesign ult i64 %indvars.iv.next36, %36
  br i1 %37, label %30, label %._crit_edge, !llvm.loop !48

._crit_edge:                                      ; preds = %30, %.preheader
  ret void
}